; Function Attrs: mustprogress uwtable
define void @_ZN5Gluco6Solver14garbageCollectEv(ptr noundef nonnull align 8 dereferenceable(1216) %0) unnamed_addr #2 align 2 personality ptr @__gxx_personality_v0 {
  %2 = alloca %"class.Gluco::ClauseAllocator", align 8
  %3 = getelementptr inbounds i8, ptr %0, i64 864
  %4 = getelementptr inbounds i8, ptr %0, i64 872
  %5 = load i32, ptr %4, align 8
  %6 = getelementptr inbounds i8, ptr %0, i64 880
  %7 = load i32, ptr %6, align 8
  %8 = sub i32 %5, %7
  call void @llvm.memset.p0.i64(ptr noundef nonnull align 8 dereferenceable(20) %2, i8 0, i64 20, i1 false)
  call void @_ZN5Gluco15RegionAllocatorIjE8capacityEj(ptr noundef nonnull align 8 dereferenceable(20) %2, i32 noundef %8)
  %9 = getelementptr inbounds i8, ptr %2, i64 20
  store i8 0, ptr %9, align 4
  invoke void @_ZN5Gluco6Solver8relocAllERNS_15ClauseAllocatorE(ptr noundef nonnull align 8 dereferenceable(1216) %0, ptr noundef nonnull align 8 dereferenceable(21) %2)
          to label %10 unwind label %21

10:                                               ; preds = %1
  %11 = getelementptr inbounds i8, ptr %0, i64 128
  %12 = load i32, ptr %11, align 8
  %13 = icmp sgt i32 %12, 1
  br i1 %13, label %14, label %25

14:                                               ; preds = %10
  %15 = load i32, ptr %4, align 8
  %16 = shl i32 %15, 2
  %17 = getelementptr inbounds i8, ptr %2, i64 8
  %18 = load i32, ptr %17, align 8
  %19 = shl i32 %18, 2
  %20 = call i32 (ptr, ...) @printf(ptr noundef nonnull dereferenceable(1) @.str.106, i32 noundef %16, i32 noundef %19)
  br label %25

21:                                               ; preds = %1
  %22 = landingpad { ptr, i32 }
          cleanup
  %23 = load ptr, ptr %2, align 8
  %.not.i.i = icmp eq ptr %23, null
  br i1 %.not.i.i, label %_ZN5Gluco15ClauseAllocatorD2Ev.exit, label %24

24:                                               ; preds = %21
  call void @free(ptr noundef nonnull %23) #28
  br label %_ZN5Gluco15ClauseAllocatorD2Ev.exit

_ZN5Gluco15ClauseAllocatorD2Ev.exit:              ; preds = %21, %24
  resume { ptr, i32 } %22

25:                                               ; preds = %14, %10
  %26 = load i8, ptr %9, align 4
  %27 = and i8 %26, 1
  %28 = getelementptr inbounds i8, ptr %0, i64 884
  store i8 %27, ptr %28, align 4
  %29 = load ptr, ptr %3, align 8
  %.not.i.i2 = icmp eq ptr %29, null
  br i1 %.not.i.i2, label %_ZN5Gluco15ClauseAllocatorD2Ev.exit4, label %30

30:                                               ; preds = %25
  call void @free(ptr noundef nonnull %29) #28
  br label %_ZN5Gluco15ClauseAllocatorD2Ev.exit4

_ZN5Gluco15ClauseAllocatorD2Ev.exit4:             ; preds = %25, %30
  %31 = load ptr, ptr %2, align 8
  store ptr %31, ptr %3, align 8
  %32 = getelementptr inbounds i8, ptr %2, i64 8
  %33 = load <2 x i32>, ptr %32, align 8
  store <2 x i32> %33, ptr %4, align 8
  %34 = getelementptr inbounds i8, ptr %2, i64 16
  %35 = load i32, ptr %34, align 8
  store i32 %35, ptr %6, align 8
  ret void
}